target datalayout = "e-m:e-p270:32:32-p271:32:32-p272:64:64-i64:64-i128:128-f80:128-n8:16:32:64-S128"
target triple = "x86_64-pc-linux-gnu"

%class.JfrOSInterface = type { ptr }

@_ZL9_instance = internal global ptr null, align 8

; Function Attrs: mustprogress nounwind uwtable
define hidden noundef i32 @_ZN14JfrOSInterface18JfrOSInterfaceImpl22cpu_load_total_processEPd(ptr noundef nonnull align 8 dereferenceable(32) %0, ptr noundef %1) #1 align 2 {
  %3 = alloca ptr, align 8
  %4 = alloca ptr, align 8
  %5 = alloca ptr, align 8
  store ptr %0, ptr %3, align 8
  store ptr %1, ptr %4, align 8
  %6 = load ptr, ptr %3, align 8
  %7 = call noundef ptr @_ZN14JfrOSInterface18JfrOSInterfaceImpl18cpu_perf_interfaceEv(ptr noundef nonnull align 8 dereferenceable(32) %6)
  store ptr %7, ptr %5, align 8
  %8 = load ptr, ptr %5, align 8
  %9 = icmp eq ptr %8, null
  br i1 %9, label %10, label %11

10:                                               ; preds = %2
  br label %15

11:                                               ; preds = %2
  %12 = load ptr, ptr %5, align 8
  %13 = load ptr, ptr %4, align 8
  %14 = call noundef i32 @_ZNK23CPUPerformanceInterface22cpu_load_total_processEPd(ptr noundef nonnull align 8 dereferenceable(8) %12, ptr noundef %13)
  br label %15

15:                                               ; preds = %11, %10
  %16 = phi i32 [ -1, %10 ], [ %14, %11 ]
  ret i32 %16
}

; Function Attrs: mustprogress nounwind uwtable
define hidden noundef nonnull align 8 dereferenceable(8) ptr @_ZN14JfrOSInterface8instanceEv() #1 align 2 {
  %1 = load ptr, ptr @_ZL9_instance, align 8
  ret ptr %1
}

; Function Attrs: mustprogress nounwind uwtable
define hidden noundef i32 @_ZN14JfrOSInterface22cpu_load_total_processEPd(ptr noundef %0) #1 align 2 {
  %2 = alloca ptr, align 8
  store ptr %0, ptr %2, align 8
  %3 = call noundef nonnull align 8 dereferenceable(8) ptr @_ZN14JfrOSInterface8instanceEv()
  %4 = getelementptr inbounds %class.JfrOSInterface, ptr %3, i32 0, i32 0
  %5 = load ptr, ptr %4, align 8
  %6 = load ptr, ptr %2, align 8
  %7 = call noundef i32 @_ZN14JfrOSInterface18JfrOSInterfaceImpl22cpu_load_total_processEPd(ptr noundef nonnull align 8 dereferenceable(32) %5, ptr noundef %6)
  ret i32 %7
}