; Function Attrs: mustprogress nounwind uwtable
define hidden noundef i32 @_ZN14JfrOSInterface22cpu_load_total_processEPd(ptr noundef %0) local_unnamed_addr #1 align 2 {
  %2 = load ptr, ptr @_ZL9_instance, align 8
  %3 = load ptr, ptr %2, align 8
  %4 = tail call noundef ptr @_ZN14JfrOSInterface18JfrOSInterfaceImpl18cpu_perf_interfaceEv(ptr noundef nonnull align 8 dereferenceable(32) %3)
  %5 = icmp eq ptr %4, null
  br i1 %5, label %_ZN14JfrOSInterface18JfrOSInterfaceImpl22cpu_load_total_processEPd.exit, label %6

6:                                                ; preds = %1
  %7 = tail call noundef i32 @_ZNK23CPUPerformanceInterface22cpu_load_total_processEPd(ptr noundef nonnull align 8 dereferenceable(8) %4, ptr noundef %0) #14
  br label %_ZN14JfrOSInterface18JfrOSInterfaceImpl22cpu_load_total_processEPd.exit

_ZN14JfrOSInterface18JfrOSInterfaceImpl22cpu_load_total_processEPd.exit: ; preds = %1, %6
  %8 = phi i32 [ %7, %6 ], [ -1, %1 ]
  ret i32 %8
}